; Function Attrs: mustprogress nounwind uwtable
define hidden void @_ZNK6hermes2vm21ChromeTraceSerializer20serializeStackFramesERNS_11JSONEmitterE(ptr nocapture noundef nonnull readonly align 8 dereferenceable(88) %this, ptr noundef nonnull align 8 dereferenceable(72) %json) local_unnamed_addr #0 align 2 {
entry:
  %ref.tmp = alloca %"class.std::function", align 8
  %root_.i = getelementptr inbounds i8, ptr %this, i64 40
  %0 = load ptr, ptr %root_.i, align 8
  %1 = load ptr, ptr %this, align 8
  %_M_manager.i.i = getelementptr inbounds i8, ptr %ref.tmp, i64 16
  %_M_invoker.i = getelementptr inbounds i8, ptr %ref.tmp, i64 24
  store ptr %1, ptr %ref.tmp, align 8
  %ref.tmp2.sroa.2.0.ref.tmp.sroa_idx = getelementptr inbounds i8, ptr %ref.tmp, i64 8
  store ptr %json, ptr %ref.tmp2.sroa.2.0.ref.tmp.sroa_idx, align 8
  store ptr @"_ZNSt17_Function_handlerIFvRKN6hermes2vm20ChromeStackFrameNodeEPS3_EZNKS1_21ChromeTraceSerializer20serializeStackFramesERNS0_11JSONEmitterEE3$_0E9_M_invokeERKSt9_Any_dataS4_OS5_", ptr %_M_invoker.i, align 8
  store ptr @"_ZNSt17_Function_handlerIFvRKN6hermes2vm20ChromeStackFrameNodeEPS3_EZNKS1_21ChromeTraceSerializer20serializeStackFramesERNS0_11JSONEmitterEE3$_0E10_M_managerERSt9_Any_dataRKSC_St18_Manager_operation", ptr %_M_manager.i.i, align 8
  call void @_ZNK6hermes2vm20ChromeStackFrameNode13dfsWalkHelperERKSt8functionIFvRKS1_PS3_EES5_(ptr noundef nonnull align 8 dereferenceable(68) %0, ptr noundef nonnull align 8 dereferenceable(32) %ref.tmp, ptr noundef null)
  %2 = load ptr, ptr %_M_manager.i.i, align 8
  %tobool.not.i.i = icmp eq ptr %2, null
  br i1 %tobool.not.i.i, label %_ZNSt8functionIFvRKN6hermes2vm20ChromeStackFrameNodeEPS3_EED2Ev.exit, label %if.then.i.i

if.then.i.i:                                      ; preds = %entry
  %call.i.i = call noundef zeroext i1 %2(ptr noundef nonnull align 8 dereferenceable(16) %ref.tmp, ptr noundef nonnull align 8 dereferenceable(16) %ref.tmp, i32 noundef 3) #14
  br label %_ZNSt8functionIFvRKN6hermes2vm20ChromeStackFrameNodeEPS3_EED2Ev.exit

_ZNSt8functionIFvRKN6hermes2vm20ChromeStackFrameNodeEPS3_EED2Ev.exit: ; preds = %entry, %if.then.i.i
  ret void
}